; Function Attrs: nounwind uwtable
define i64 @PaPulseAudio_GetStreamReadAvailableBlock(ptr noundef %0) local_unnamed_addr #0 {
  %2 = getelementptr inbounds nuw i8, ptr %0, i64 472
  %3 = load ptr, ptr %2, align 8
  %4 = icmp eq ptr %3, null
  br i1 %4, label %12, label %5

5:                                                ; preds = %1
  %6 = getelementptr inbounds nuw i8, ptr %0, i64 584
  %7 = tail call i64 @PaUtil_GetRingBufferReadAvailable(ptr noundef nonnull %6) #3
  %8 = getelementptr inbounds nuw i8, ptr %0, i64 556
  %9 = load i32, ptr %8, align 4
  %10 = sext i32 %9 to i64
  %11 = sdiv i64 %7, %10
  br label %12

12:                                               ; preds = %1, %5
  %.0 = phi i64 [ %11, %5 ], [ 0, %1 ]
  ret i64 %.0
}